(dp0
VGrabba Stik
p1
VCodex: Orks (pg 50)(Source: ??)
p2
sVHit & Run
p3
VTake an Initiative test at the end of the assault phase, if succesful choose a direction and roll 3D6, move that far ignoring all models in base contact, if this would take you within 1" of another unit stop 1" away, treat all terrain as dangerous. The unit left makes an immediate D6" consolidation. (Source: BRB, p.38)
p4
sVGrot-Prod
p5
VCodex: Orks (pg 50)(Source: ??)
p6
sVZzap Gun (Vehicle Mounted)
p7
VEach time a Zzap gun is fired roll 2D6 to determine its Strength. When they score glancing or penetrating hits against vehicles, Zzap guns automatically cause a 'Crew Shaken' result in addition to any other effects.(Source: ??)
p8
sVReinforced Ram
p9
VA vehicle with a Reinforced ram can Tank Shock, and treats its front armour as two higher than normal when resolving Death or Glory attacks (to a maximum of 14). Furthermore, the vehicle may re-roll Dangerous Terrain tests.(Source: ??)
p10
sVPsyker
p11
VSee the Warhammer 40K rulebook.(Source: ??)
p12
sVTankbusta Bombz
p13
VTankbusta bombz are used just like krak grenades.(Source: ??)
p14
sVUnquenchable Resolve
p15
VAt the end of a phase in which Fuegan suffers a wound his S and A values increase by 1 until the end of the game or Fuegan dies(Source: ??)
p16
sVDeff Rolla
p17
VA Battlewagon with a deff rolla may re-roll Dangerous Terrain tests. Any Tank Shock made by a Battlewagon with a deff rolla causes D6 Strength 10 hits on the victim unit. If the unit elects to make a Death or Glory attack, it takes a further D6 Strength 10 hits in addition to the usual effects.(Source: ??)
p18
sVMonofilament
p19
VIf the target's majority Initiave is 3 or less than this weapon has +1S, additionally if a 6 is rolled to wound it is treated as AP1(Source: ??)
p20
sVBane of the Traitor
p21
VWhen a Weapon with this Special Rule is used to attack a model from Codex: Chaos Space Marines, the AP is improved by 1 (to a max of 1)(Source: Codex: Dark Angels 6th, p.62)
p22
sVDon't Press Dat!
p23
VEach Looted Wagon must roll a dice at the start of each Ork Movement phase. On a roll of a 1, that vehicle must move directly forward as far as possible as the Orks inside get carried away. This can potentially mean that the Wagon may Tank Shock an enemy unit. Passengers may not disembark this turn.(Source: ??)
p24
sVWarbike
p25
VAny model mounted on a Warbike adds 1 to his Toughness, modifies his troop type to Bike, gains a 4+ armour save and the Exhaust Cloud special rule.(Source: ??)
p26
sVExarch Power: Monster Hunter
p27
VGrants the Monster Hunter USR(Source: ??)
p28
sVChampion of Chaos
p29
VA model with the Champion of Chaos special rule must always issue and accept a challenge whenever possible.\u000a\u000aWhenever a character with the Champion of Chaos special rule kills an enemy character, you must immediately check to see if the Dark Gods reward him. To do this, roll a D66 on the Chaos Boon table (page 29)(Source: ??)
p30
sVGrand Master of the Deathwing
p31
VIn a primary Detachment that contains Belial, Deathwing Terminator Squads are troops choices instead of elites.(Source: Codex: Dark Angels 6th, p.92)
p32
sVPsyker ML3
p33
VDivination, Funes of Fate or Telepathy Disciplines(Source: ??)
p34
sVPsyker ML2
p35
VTelepathy and Runes of Battle Discplines(Source: ??)
p36
sVHover Strike
p37
VAt the start of its Movement phase, a model with this special rule can declare that it is making a special Hover Strike this turn.  If it does so, its unit type changes to Skimmer until the start of its next Movement phase.  It gains the Strafing Run special rule but cannot move, except to pivot on the spot.(Source: ??)
p38
sVBurna
p39
VA burna may be used in the Shooting phase, or as a power weapon in the Assault phase, but not both in the same turn.(Source: ??)
p40
sVDeep Strike
p41
VRead the BRB, it's too complicated to explain in a small space.(Source: BRB, p.36)
p42
sVExhaust Cloud
p43
VWarbikers produce great clouds of smoky exhaust fumes, giving them a 4+ cover save.(Source: ??)
p44
sVMindlock
p45
VUnless it includes a Techamrine, an unengaged unit that contains at least one model with theis special rule must roll a D6 at the start of its turn.  \u000aOn a 4+ there is no effect this turn.  On a roll of 1,2 or 3, the unit is mindlocked until the start of its follwoing turn.  \u000aA mindlocked unit may not voluntarily mov, shoot or charge.  A mindlocked unit must still make compulsory moves, such as Pile In and Fall Back moves.(Source: Codex: Dark Angels 6th, p.32)
p46
sVSpell Familiar
p47
VA model with a spell familiar may re-roll failed Psychic test. The spell familiar is always assumed to be on the same base as its master. If you wish to represent it separately you can. However, the model itself plays no part in the game; if the model gets in the way, simph move it to one side.(Source: ??)
p48
sVDa Vulcha's Klaws
p49
VOn any turn that Zagstruk charges, he counts as having a power klaw that strikes in normal Initiative order (remember that with Zagstruk's Furious Charge this will be resolved at Initiative 4).(Source: ??)
p50
sVLord of the Plauge Host
p51
VIn a primary detachment that includes Typhus, Plague Marines are troops choices instead of elites.(Source: ??)
p52
sVWreckin' Ball
p53
VCodex: Orks (pg 92)(Source: ??)
p54
sVIcon of Despair
p55
VUnits with the Mark of Nurgle only. All models with the Mark of Nurgle in a unit equipped with an icon of despair have the Fear special rule.(Source: ??)
p56
sVShootier
p57
VCodex: Orks (pg 56)(Source: ??)
p58
sVFlail
p59
Vlf one or more enemy models are in base contact with a model with a Flail weapon at the beginning of the Fight sub-phase, roll a D3 and subtract the result from the Weapon Skill of those models (to a minimum of 1) for the duration of that phase.(Source: ??)
p60
sVGitfindas
p61
VORK FAQ(Source: ??)
p62
sVDirge Caster
p63
VEnemy units within 6" of one or more vehicles with a dirge caster cannot fire Overwatch.(Source: ??)
p64
sVPalanquin of Nurgle
p65
VThe model receives +2 Wounds, +1 Attack and gains the Very Bulky special rule.(Source: ??)
p66
sVMastery Level 1
p67
VGenerate 1 Warp Charge per turn, choose 1 power from: Divination, Pyromancy, Telepathy or Telekinesis(Source: ??)
p68
sVMarked for Retribution
p69
VBelial's shooting attacks are precision Shots on a to hit roll of 5+(Source: Codex: Dark Angels 6th, p.56)
p70
sVAttack Squig
p71
VCodex: Orks (pg 92)(Source: ??)
p72
sVMaster of Deception (Warlord Trait)
p73
VNominate up to D3 Infantry units in your army before deployment. Those units gain the Infiltrate special rule.(Source: ??)
p74
sVDimensional Key
p75
VWhen the bearer kills an enemy model in the Fight sub-phase, he may immediately unlock the Key's power. From this point on, all enemy models that start any phase within 12" of the Key's bearer treat all terrain as both difficult and dangerous during that phase. Furthermore any friendly units from this codex that arrive by Deep Strike after the Key's power has been unlocked do not scatter.(Source: ??)
p76
sVDeathwing Vehicle
p77
VPreferred Enemy (Chaos Space Marines), you may make your opponent re-roll any vehicle damage result(Source: ??)
p78
sVWalker of the Hidden Path
p79
VIllic Nightspear can be deployed anywhere on the table regardless of enemy proximity, any rangers or Alaitoc Pathfinders that are outflanking may arrive right next to Illic, to do that Deep Strike so the unit is completly within 6" of Illic and do not scatter(Source: ??)
p80
sVKhaine Awakened
p81
VAll friendly models from Codex: Eldar within 12" are Fearless(Source: ??)
p82
sVHatred
p83
VReroll all misses in the first round of each combat.(Source: BRB, p.37)
p84
sVGrot Orderly
p85
VA Grot Orderly allows the Painboy's unit to re-roll a single Feel No Pain roll. Remove the Orderly model once he has been used. Orderly models are purely decorative and are always ignored for game purposes, just move them to one side if they become a problem.(Source: ??)
p86
sVBoarding Plank
p87
VCodex: Orks (pg 92)(Source: ??)
p88
sVMega Armour
p89
VMega armour confers a 2+ armour save.(Source: ??)
p90
sVFortress of Shields
p91
VAny model with the Inner Circle rule that is in base contact with a two models with this rule gain +1 Toughness(Source: ??)
p92
sVDisc of Tzeentch
p93
VThe model receives +1 Attack and his unit type becomes Jetbike.(Source: ??)
p94
sVDa Powder Grotz
p95
VCodex: Orks (pg 57)(Source: ??)
p96
sVHit and Run
p97
VSee the Warhammer 40K rulebook.(Source: ??)
p98
sVSupreme Grand Master of the Dark Angels
p99
VIn a primary detachment that contains Azrael, Ravenwing Attack Squadrons and Deathwing Terminator Squads are troops instead of their normal Force Organisation categories.(Source: Codex: Dark Angels 6th, p.92)
p100
sVMore Dakka
p101
VCodex: Orks (pg 92)(Source: ??)
p102
sVStasis Anomaly
p103
VEvery model in a unit hit by one or more weapons with this special rule suffers a -1 penalty to their  Weapon Skill and Initiative, to a minimum of 1, until the end of the turn.(Source: ??)
p104
sVAdamantium Skull
p105
VCodex: Orks (pg 58)(Source: ??)
p106
sVMagma Cutter
p107
VIf a Maulterfiend hits with at least one Attack in the Fight sub-phase, it may make an additional Attack with one of its magma cutters against one of the models it hit. If it hit with all of its Attacks, it instead makes two additional Attacks with its magma cutters against one of the models it hit.\u000a\u000aThese Attacks hit automatically and are resolved at Initiative 1.(Source: ??)
p108
sVWarlord Trait: The Hunt
p109
V+1 Victory point if your Warlord or his unit kill enemy Warlord in the Assault phase.(Source: Codex: Dark Angels 6th, p.56)
p110
sVScrolls of Magnus
p111
VModels with the Mark of Tzeentch only. At the beginning of each of his turns, the bearer of the Scrolls of Magnus may choose to gain an additional psychic power for the rest of the game. To do so, roll a D6 and consult the table below to see which discipline the new psychic power is from. Then, randomly generate a power from that discipline, as\u000aif you were rolling for a Mastery Level I Psyker with the exception that you cannot swap to the Primaris Power. If this results in a power the bearer already knows, roll again on the table below. Every time the bearer rolls on the table below (including re-rolls), the secrets of the Scrolls wrack his mind - he immediately takes a Strength 3 AP1 hit, with the Ignores Cover special rule.(Source: ??)
p112
sVBomb-squig
p113
VCodex: Orks (pg 42)(Source: ??)
p114
sVGift of Mutation
p115
VBefore deployment, roll on the Chaos Boon table (pg 29) and mark the result on your army roster. Do not apply any Spawnhood or Dark Apotheosis results; roll again on the table instead. The model has that result for the entire game.(Source: ??)
p116
sVWartrakk
p117
VCodex: Orks (pg 49)(Source: ??)
p118
sVYou Cannot Hide
p119
VGain a precision strike on a 6 in close combat(Source: ??)
p120
sVFear
p121
VAt the start of each Fight sub-phase, a unit in base contact with one or more enemy models that cause Fear must take a Leadership test (called a Fear test) before any blows are struck.\u000a\u000aIf the test is passed, all is well and there is no effect. If the test is failed, all models in the unit have their Weapon Skill reduced to 1 for the remainder of that Fight sub-phase.\u000a\u000aUnits with "And they shall know no fear" and "Fearless" automatically pass Fear checks.(Source: ??)
p122
sVFirst Amongst Chosen
p123
VIn a pirmary detatchment that includes Abbodon, units of Chosen are troop choices instead of Elite choices.(Source: ??)
p124
sVChaos Lord - Mark of Nurgle
p125
VPlauge Marines are troops instead of elites(Source: ??)
p126
sVAcrobatic
p127
VUnits composed entirely of models with this rule Run an additional 3"(Source: ??)
p128
sVImpact
p129
VIn a fight sub-phase in which the wielder did not charge the weapon counts as a basic close combat weapon(Source: ??)
p130
sVDaemonforge
p131
VOnce per game, at the start of any Shooting or Assault phase, the Daemonforge may be activated. For the rest of the phase, the model may re-roll all failed To Wound rolls and all failed armour penetration rolls. At the end of the phase in which the Daemonforge is used, roll a D6. If the result is a 1, the model loses a Hull Point with no saves of any kind allowed.(Source: ??)
p132
sVGrot Gunner (Big Shoota)
p133
VBS 3 (Source: ??)
p134
sVSplit Fire
p135
VTake A leadership test, if passed each model may fire at a different target than the rest of the unit, if failed all models fire at the same target(Source: BRB, p.42)
p136
sVAncient Doom
p137
VHatred Slasanesh, suffers a -1 to fear tests when in combat with any Slaanesh unit(Source: ??)
p138
sVLaser Lock
p139
VRoll to hit with this weapon first, if it hits at least once, treat ll other weapons as Twin-Linked(Source: ??)
p140
sVDaemon of Tzeentch
p141
VHatred (Daemons of Nurgle); re-roll all saving throw results of 1.(Source: ??)
p142
sVFeel No Pain (6+)
p143
VIgnore unsaved wounds on a 6+, treat it as saved wound(Source: ??)
p144
sVRelentless
p145
VCounts as stationatry for firing weapons, may charge after firing any type of weapon.(Source: BRB, p.41)
p146
sVFighta Ace
p147
VWhen shooting at jetbikes or vehicles with the skimmer type, a dakkajet with the fighta Ace upgrade is treated as being Ballistic Skill 3.(Source: ??)
p148
sVZealot
p149
VUnit this Character is joined to has Fearless and Hatred (Everything)(Source: BRB, p.43)
p150
sVHerald of Victory
p151
VDoes not scatter when deep striking(Source: ??)
p152
sVBeseech the Dark Gods
p153
VAfter deployment, if a character in the Dark Apostle's unit (including the Apostle himself) rolls on the Chaos Boon table, he may re-roll the result.(Source: ??)
p154
sV'Eavy Armour
p155
VIt confers a 4+ armour save.(Source: ??)
p156
sVThe Black Staff of Ahriman
p157
VAllows Ahriman to manifest up to three witchfire powers in the same Shooting phase, prol'ided he has enough Warp Charge poims.(Source: ??)
p158
sVSiege Crawler
p159
VMaulerfiends can move up to 12" in the Movement phase and are not slowed by difficult terrain (even when charging). In addition, in close combat, Maulerfiends add 1 to armour penetration rolls against buildings.(Source: ??)
p160
sVSquig Hound
p161
VCodex: Orks (pg 50)(Source: ??)
p162
sVIcon of Excess
p163
VUnits with the Mark of Slaanesh only. All models with the Mark of Slaanesh in a unit equipped with an icon of excess have the Feel no Pain special rule.(Source: ??)
p164
sVArmour Plates
p165
VCodex: Orks (pg 93)(Source: ??)
p166
sVExarch Power: Fear
p167
VGives the Fear USR(Source: ??)
p168
sVExarch Power: Battle Fortune
p169
Vthis model has a 4++(Source: ??)
p170
sVSigil of Corruption
p171
VA model with a sigil of corruption has a 4+ Invulnerable Save(Source: ??)
p172
sVSoul Blaze
p173
VIf a unit suffers one or more unsavd wounds from an attack with this special rule, it is set ablaze and continues to burn - mark it with a coin or counter as a reminder.\u000a\u000aAt the end of each turn, roll a D6 for each unit with a Soul Blaze counter on it. On a 3 or less, the flames die out and the unit is no longer ablaze. On a 4+, the unit takes D3, S4, AP 5 hits. These wounds are allocated by the unit's controller player and cover saves cannot be taken.(Source: ??)
p174
sVSteed of Slaanesh
p175
VThe model receives +1 Attack, and adds +3" to his Run moves. Furthermore, he gains the Acute Senses and Outflank special rules, and his unit type becomes Cavalry(Source: ??)
p176
sVDrop Pod Assault
p177
VAt the beginning of your first turn, half rounding up of your drop pods come in via Deep Strike(Source: ??)
p178
sVIt Will Not Die
p179
VAt the end of each friendly turn, roll a D6 for each model with this special rule that has less than it's starting number of wounds or hull points, but has not been removed as a casualty or destroyed. On a roll of 5+, that model regains a Wound or Hull Point, lost earlier in the battle.(Source: ??)
p180
sVMark of Chaos Ascendant
p181
VIf Abaddon is included in your primary detachment, he must be the Warlord. He also has all four Marks of Chaos. Note that, due to the Mark of Tzeentch, the invulnerable save provided by Abaddon 's Terminator armour is increased to 4+.(Source: ??)
p182
sVHatred (Abaddon)
p183
VBlood Angels have the Hatred (Abaddon) special rule.(Source: ??)
p184
sVBigbomm
p185
VCodex: Orks (pg 48)(Source: ??)
p186
sVPsychic: Zogwort's Curse
p187
VCodex: Orks (pg 61)(Source: ??)
p188
sVIcon of Flame
p189
VUnits with the Mark of Tzeentch only. All boltguns, combi- bolters, heavy bolters and bolt pistols carried by models with the Mark of Tzeentch in a unit equipped with an icon of flame have the Soul Blaze special rule.(Source: ??)
p190
sVChoppa
p191
VChoppas are close combat weapons, see the Warhammer 40K rulebook.(Source: ??)
p192
sVWarlord Trait
p193
VPick (do not roll) on the Dark Angels Warlord table on Page 28(Source: Codex: Dark Angels 6th, p.53)
p194
sVPsyker ML4
p195
VDivination, Runes of Fate or Telepathy Disciplines(Source: ??)
p196
sVBlessing of the Omnissiah
p197
VIn each Shooting Phase, instead of firing a weapon, the Techmarine may choose to repair a single friendly vehicle in base contact or embarked on.\u000aRoll a D6 and add the following modifiers (if applicable): +1 for a Servo Harness, and +1 for each Servo armed servitor in his unit.\u000aIf the result is 5 or more you may either restore a Hull Point or repair a Weapon Destroyed or Immobilised result, this is effective immediatly (ie the vehicle can then fire the reparied weapon)(Source: Codex: Dark Angels 6th, p.32)
p198
sVInternal Guidance System
p199
VReduce the ammount of scatter by the minimum required to prevent landing on terrain or another model. If the Drop Pod scatters off the table roll on the Deep Strike Mishap table.(Source: ??)
p200
sVCursed
p201
Vlf a model suffers an unsaved Wound from the Black Mace it must immediately take a Toughness test. lf the test is failed, remove the model as a casualty with no saves of any kind allowed. In addition, at the end of a phase in which the Black Mace causes one or more unsaved Wounds, all non vehicle enemy models within 3" of the bearer, which haven't suffered an unsaved Wound from the Black Mace this phase, must take a toughness test. Any models that fail the test suffer a Wound with no saves of any kind allowed.(Source: ??)
p202
sVFurious Charge
p203
VSee the Warhammer 40K rulebook.(Source: ??)
p204
sVBolster Defences
p205
VAfter Deployment, but before Scout and Infiltrators, nominate one peice of terrain in your deployment zone, the terrain's cover is increased by 1 to a maximum of 2+(Source: Codex: Dark Angels 6th, p.32)
p206
sVPsyker ML1
p207
VRunes of Battle Discpline(Source: ??)
p208
sVSkyfire
p209
VA model with this special rule, or that is firing a weapon with this special rule, fires using its normal BS when shooting at Flyers, Flying Monsterous Creatures and Skimmers. Unless it also has the Interceptor special rule, it can only fire snap shots against other targets.(Source: ??)
p210
sVObliterator Weapons
p211
VIn each of your Shooting phases, you must choose what weapon the Obliterators in the unit will fire from the following list:\u000a\u000a\u2022 Assault cannon\u000a\u2022 Heavy flamer\u000a\u2022 Lascannon\u000a\u2022 Multi-melta\u000a\u2022 Plasma cannon\u000a\u2022 Twin-linked flamer\u000a\u2022 Twin-linked meltagun\u000a\u2022 Twin-linked plasma gun\u000a\u000aEvery Obliterator in the unit must fire the same weapon. An Obliterator unit cannot choose to fire the same weapon in two of your consecutive Shooting phases.(Source: ??)
p212
sVArmour of Shrieking Souls
p213
VThis armour grants Lucius a 3+ Armour Save and a 5+ invulnerable save. For each armour save or invulnerable save Lucius passes during the Fight sub-phase, the unit (or model, if he is in a challenge) that caused the Wound immediately suffers a S4 AP2 hit with the Ignores Cover special rule.(Source: ??)
p214
sVLasher Tendril
p215
VEach set of lasher tendrils reduces the Attacks characteristics of every model (friend and foe) in base contact with the bearer by 1 (to a minimum of 1) whilst they remain in base contact. The effects of multiple sets are cumulative.(Source: ??)
p216
sVJuggernaut of Khorne
p217
VThe model received +1 Toughness, +1 Wound, +1 Attack and his unit type becomes Cavalry.(Source: ??)
p218
sVIchor Blood
p219
VAny unit that causes one or more unsaved wounds on a model with ichor blood during the Fight sub-phase immediately takes a S3 AP4 hit per Wound caused.(Source: ??)
p220
sVUnrelenting Hunter
p221
VWhen shooting at enemy vehicles, a Nephilim Jetfighter can choose to treat any Weapon Destroyed results as Immobilised results.(Source: Codex: Dark Angels, p.50)
p222
sVExarch Power: Crushing Blow
p223
VThis model has +1S(Source: ??)
p224
sVThe Chirurgeon
p225
VThe Chirurgeon gives Fabius +2 Attacks and +1 Strength (included in his profile) and the Feel No Pain special mle.(Source: ??)
p226
sVRad Charge
p227
VEvery model in a unit hit by one or more rad shells suffers a -1 penalty to their Toughness until the end of the turn ( this can affect the victims' Instant Death threshold) .(Source: ??)
p228
sVJump Pack
p229
VModels equipped with jump packs have the jump unit type, as described in the warhammer 40,000 rulebook.(Source: ??)
p230
sVCybork Body
p231
VA model with a cybork body has a 5+ invulnerable saving throw.(Source: ??)
p232
sVGrabbin' Klaw
p233
VCodex: Orks (pg 92)(Source: ??)
p234
sVAssault Vehicle
p235
VPassengers may assault the same turn they disembark(Source: ??)
p236
sVRokkit Pack
p237
VRokkit packs count as jump packs. Every time the Stormboyz utilises its rokkit packs to move or fall back, roll a D6. On the roll of a 1, one of the rokkit packs has gone out of control. Its owner lands his head and the pack detonates. Remove a Stormboy model as a casualty. Regardless of the result you may add the number rolled to the amount the unit moves that turn.(Source: ??)
p238
sVKustom Force Field
p239
VCodex: Orks (pg 34)(Source: ??)
p240
sVProphet of the Waaagh!
p241
VCodex: Orks (pg 58)(Source: ??)
p242
sVExarch Power: Feel no Pain
p243
VGrants Feel no Pain USR(Source: ??)
p244
sVSlow and Purposeful
p245
VCannot run, turbo-boost, move flat out, perform sweeping advances or fire overwatch. They can shoot with heavy, salvo and ordance weapons, counting as stationary even if they moved in the previous movement phase. They are also allowed to charge in the same turn they fire Heavy, Ordance, Rapid Fire or Salvo weapons.(Source: ??)
p246
sVPlauge Zombies
p247
VAny Chaos Cultist units (see the army list, pg 95) in the same army as Typhus can be nominated as Plague Zombies. Plague Zombies are Chaos Cultists that have the Fearless, Feel No Pain and Slow and Purposeful special rules, and cannot purchase options. They are armed with a single close combat weapon -any guns are used strictly for the purposes of clubbing meir victims to death!(Source: ??)
p248
sVShatter Defences
p249
VAfter deployment, but before Scout redeployments and Infiltrate deployment, nominate one piece of terrain in your opponent's deployment zone (this may not be one that he has purchased as part of his army). The terrain's cover save is decreased by one for the duration of the game. For example, a ruin (4+ cover save) would instead offer a 5+ cover save. A piece of terrain can only be shattered in this way once.(Source: ??)
p250
sVExarch Power: Fast Shot
p251
VThis model alwasy fires one more shot than is normal for his weapon, termplate weapons are not affected by this power.(Source: ??)
p252
sVDaemon of Slaneesh
p253
VFleet; Hatred (Daemons of Khorne); Rending; Run an additional 3".(Source: ??)
p254
sVWaaagh!
p255
VCodex: Orks (pg 31)(Source: ??)
p256
sVMark of Khorne
p257
VModels with the Mark of Khorne have the Rage and Counter-attack special rules.(Source: ??)
p258
sVHQ Requirement
p259
VThis unit may not be used to fulfill the mandatory HQ slot on a Force Org chart.(Source: ??)
p260
sVKombi-weapon
p261
VThe shoota part of the kombi-weapon can be fired normally, but the other half of the weapon may only be used once per battle. They may not be fired at the same time.(Source: ??)
p262
sVExarch Power: Iron Resolve
p263
VThis model has +1LD(Source: ??)
p264
sVPreferred Enemy (Chaos Space Marines)
p265
VReroll all failed to hit and to wound rolls of 1 against the chosen enemy in both shooting and assault.(Source: BRB, p.40)
p266
sVLord of Decadence
p267
VIn a primary detachmmt that includes Lucius, Noise Marines are troop choices instead of elites.(Source: ??)
p268
sVWarphead
p269
VCodex: Orks (pg 37)(Source: ??)
p270
sVIcon of Vengance
p271
VAll models in a unit equipped with an icon of vengeance have the Fearless special rule.(Source: ??)
p272
sVStealth
p273
VCounts it's coversave as 1 point better than normal, (Combines with Shrouded)(Source: ??)
p274
sVDistort
p275
VTo wound rolls of 6 wound automatically and have Instant Death rule. To penetrate rolls of 6 automatically penetrate(Source: ??)
p276
sVDuellist's Pride
p277
VWhile Lucius is in a challenge, his Attacks characteristic is equal to the Weapon Skill of his opponent.(Source: ??)
p278
sVPerfect Strike
p279
VPrecision Shots on a 6(Source: ??)
p280
sVFeel No Pain
p281
VIgnore unsaved wounds on a 5+, treat it as saved wound(Source: ??)
p282
sVMark of Tzeentch
p283
VModels with the Mark of Tzeentch have +1 to their invulnerable save.(Source: ??)
p284
sVMork's Teeth
p285
VCodex: Orks (pg 62)(Source: ??)
p286
sVStikkbomb Chucka
p287
VCodex: Orks (pg 93)(Source: ??)
p288
sVMark of Nurgle
p289
VModels with the Mark of Nurgle have +1 Toughness.(Source: ??)
p290
sVExarch Power: Hit & Run
p291
VGrants the Hit & Run USR(Source: ??)
p292
sVUnwieldy
p293
VA model attacking with this weapon does so at iniative step 1, unless it is a monstrous creature or a walker.(Source: ??)
p294
sVExarch Power: Shield of Grace
p295
VIn any round of a challenge this model may choose to defend gaining a 3++, but can only make one attack this round.(Source: ??)
p296
sVFearless
p297
VAutomatically pass all LD tests but cannot go to ground or use the "Our Weapons Are Usless" rule.(Source: BRB, p.35)
p298
sVBike of the Aporkalypse
p299
VCodex: Orks (pg 60)(Source: ??)
p300
sVMolten Body
p301
VUnaffected by all Pyromancy psychic powers, all flamer weapos as defined in the rulebook and all attacks with the Melta and/or Soul Blaze rules(Source: ??)
p302
sVStrafing Run
p303
VWhen shooting Assault, Heavy, Rapid Fire or Salvo weapons at Artillery, Beasts, Bikes, Cavalry, Infantry, Monsterous Creatures and vehicles without the Flyer or Skimmer type, this vehicle has a +1 Ballistic Skill.  Regardless of the target, the vehicle's shots also have the Pinning special rule.(Source: BRB, p.42)
p304
sVTactical Precision
p305
VBelial and any unit he has joined with Inner Circle rule do not scatter when Deep Striking.(Source: Codex: Dark Angels 6th, p.56)
p306
sVOne Scalpel Short of a Medpack
p307
VCodex: Orks (pg 59)(Source: ??)
p308
sVWarpflame Strike
p309
VImmediately after a unit of Warp Talons has arrived from reserve by Deep Strike, all enemy units within 6" count as having been hit by a weapon with the Blind special rule.(Source: ??)
p310
sVMaster of Mechanisms
p311
VIn each of your Shooting phases, instead of firing his weapons, a Warpsmith may choose to either repair a single friendly, damaged vehicle or curse a single enemy vehicle. The Warpsmith cannot use this ability if he has gone to ground or is falling back.\u000a\u000a\u2022 To repair a vehicle, the Warpsmith must be in base contact with it or embarked upon it. Roll a D6, (add +1 if the Warpsmith has mechatendrils). If the result is 5 or more, you may either restore a Hull Point lost earlier in the battle or repair a Weapon Destroyed or Immobilised result suffered earlier in the battle, effective immediately.\u000a\u000a\u2022 To curse a vehicle, the Warpsmith must be within 18" of\u000ait. Roll To Hit the vehicle using the Warpsmith's Ballistic Skill. If the curse hits, all of that vehicle's weapons have the Gets Hot special rule until the end of its next turn.(Source: ??)
p312
sVSpirit Mark
p313
VAt any point during your movement phase, nominate a single enemy unit within 12" of the Spiritseer - place a counter next to it to show it has been spirit marked. All Wraithguards, Wraithblades, Wraithlords, Wraithknights and Hemlock Wraithfighters re-roll To Hit rolls of 1 against Spirit Marked units. At the end of your turn, remove all Spirit-mark counters from play.(Source: ??)
p314
sVBlessing of the Blood God
p315
VKharn and his unit always pass their Deny the Witch rolls on a 2+. In addition, if Kharn suffers an unsaved Wound from a Force weapon, that weapon cannot inflict Instant Death on him.(Source: ??)
p316
sVAura of Dark Glory
p317
VA model with an aura of dark glory has a 5+ invulnerable save.(Source: ??)
p318
sVKilla Reputation
p319
VCodex: Orks (pg 62)(Source: ??)
p320
sVVast Stasis Anomaly
p321
VEvery model in a unit hit by one or more weapons with this special rule suffers a -3 penalty to its Weapon\u000aSkill and Initiative, to a minimum of 1, until the end of the turn. This replaces any penalty inflicted on a target by a Stasis Anomaly.(Source: ??)
p322
sVRavenwing Combat Squads
p323
VThe Attack bike and Land speeder are purchased as part of the Squadron but will always operate as an individual, if there are 6 bikers left after the attack bike and land speeder have split, then they operate as two squadrons of 3(Source: ??)
p324
sVPsychic: Weirdboy Psychic Powers
p325
VCodex: Orks (pg 37)(Source: ??)
p326
sVHand of Asuryan
p327
VSaurmen must be the Warlord, he has D3 traits from the Eldar Warlord table(Source: ??)
p328
sVAmmo Runt
p329
VA model with an ammo runt is allowed to re-roll one To Hit roll for a shooting attack once per game. Ammo runt models are purely decorative and are always ignored for game purposes, just move them to one side if they become a problem.(Source: ??)
p330
sVGoldtoof Armour
p331
VIt confers a 3+ armour saving throw, and also incorporates a force field that gives the Kaptin a 5+ invulnerable save.(Source: ??)
p332
sVIndependent Character
p333
VSee the Warhammer 40K rulebook.(Source: ??)
p334
sVNon Jump Infantry
p335
VAssault units that drop their Jump Packs for a Drop Pod or Rhino are no longer Jump Infantry, just regular Infantry.\u000aAll other rules apply(Source: ??)
p336
sVPsycher (Master Level 2)
p337
VTyphus generates his powers from the Nurgle discipline.(Source: ??)
p338
sVSkyhunter
p339
VWhen Shooting at a Flyer, re-roll penetration roll that do not penetrate or glance(Source: ??)
p340
sVBlack Crusader (Warlord Trait)
p341
VThe Warlord and all friendly units within 12" of the Warlord have the Preferred Enemy (Space Marines) special rule.(Source: ??)
p342
sVAmbush
p343
VCodex: Orks (pg 62)(Source: ??)
p344
sVLash of Torment
p345
VThe Lash of Torment reduces the Attacks of any model in base contact with Lucius by 1 (to a minimum of 1). In addition, all of Lucius' close combat attacks have the Shred special rule.(Source: ??)
p346
sVScouts
p347
VAfter all deployment but before first turn a unit with this rule may redeploy, if it is Infantry, Artillery, Walker or a Monstrous Creature it may redeploy anywhere within 6", all other unit types may redelpoy anywhere within 12".\u000aAny unit that redelpoys with this rule may not charge on the first turn.\u000aIf held in reserve, the unit gains outflank.(Source: BRB, p.41)
p348
sV'Urty Syringe
p349
VAn 'urty syringe is a poisoned (4+) close combat weapon.(Source: ??)
p350
sVThe Destroyer Hive
p351
VOnce per game, in any Assault phase, Typhus can unleash the Destroyer Hive instead of attacking. At the start of Typhus' Initiative Step, place a large blast marker with the hole centered over Typhus (this does not scatter). All units (friend and foe) suffer a number of hits equal to the number of models from their unit that are at least partially under the large blast marker. These hits are resolved at S4 AP2 and have the "Ignores Cover" special rule. Do not count Typhus when working out how many hits are caused. Wounds from this attack cannot be allocated to Typhus.(Source: ??)
p352
sVDeathwing Assault
p353
VUnits composed entirely composed of models with this rule and wearing Terminator Armour can choose to make a Deathwing Assault.\u000aImmediatly after determining Warlord Traits, tell your opponent which units are making a Deathwing Assault, and make a secret note on weather it happens during turn 1 or turn 2. All units chosen arrive then with no need to roll for deep strike reserves.(Source: Codex: Dark Angels 6th, p.44)
p354
sVMob Rule
p355
VCodex: Orks (pg 31)(Source: ??)
p356
sVThe Betrayer
p357
VWhen rolling To Hit with Kharn's melee attacks, any unmodified rolls of a 1 are not discarded. Instead, they automatically hit a friendly model (but not Khorn) locked in the same combat. Randomly determine (for each roll of a 1) which model is hit, from those within 6" of Kharn. If there are no viable targets in range, these Attacks are discarded.(Source: ??)
p358
sVIndependant Character
p359
VIndependent Characters can join and leave other non-vehicle non-'loner' units. Although Independent Characters may join with other Independent Characters to form a powerful multi-character unit.\u000aAn Independent Character counts as having joined a unit if he ends his move within 2" of them, if he is within 2" of more than one unit you must declare which unit he is joining.\u000aAn Independent Character may leave his unit and join another one in the same movement phase, but he may not join a unit in any other phase.\u000aAn Independent Character cannot join or leave a unit that is locked in combat or falling back, he also may not leave a unit that has gone to ground.\u000a\u000aLook out Sir is taken on a 2+\u000a\u000aIf a unit with an Independent Character in it has fallen to below 25% they test as if they had 25% remaning\u000a\u000aWhen an Independent Character joins a unit he looses all special rules that the unit does not have unless the rule says it applys to the unit (eg Stubborn) and vice versa\u000a\u000aIf the unit is suffering from ongoing effects (eg blind, soul blaze) and the Independent Character leaves the unit, he is still suffering from those effects as well, but they to not transfer to a new unit he joins.(Source: BRB, p.0)
p360
sVThe Path of Strategy
p361
VIf your army contains one or more Autarchs, you can modify the reserve rolls by +1 or -1 (choose separately after each roll)(Source: ??)
p362
sVStikkbombs
p363
VCount as frag grenades, see the Warhammer 40K rulebook.(Source: ??)
p364
sVDok's Tools
p365
VHe confers the Feel No Pain special rule to his unit.(Source: ??)
p366
sVBosspole
p367
VEach time a unit with a Bosspole fails a Morale test you may choose to inflict a wound on that unit (not on the model with the Bosspole) in order to re-roll that Morale test.(Source: ??)
p368
sVWarpflame Gargoyles
p369
VAll weapons on a vehicle with warpflame gargoyles have the Soul Blaze special rule.(Source: ??)
p370
sVExarch Power: Night Vision
p371
VGrants the Night Vision USR(Source: ??)
p372
sVHatred Incarnate (Warlord Trait)
p373
VThe Warlord and his unit have the Hatred special rule.(Source: ??)
p374
sVLord of Terror (Warlord Trait)
p375
VThe Warlord has the Fear special rule.(Source: ??)
p376
sVRed Paint Job
p377
VCodex: Orks (pg 92)(Source: ??)
p378
sVSnazzgun
p379
VRoll once each Shooting phase to determine the unit's AP, but only after the target unit has been chosen.(Source: ??)
p380
sVWaaagh! Banner
p381
VA mob including a Waaagh! banner has +1 Weapon Skill.(Source: ??)
p382
sVAnd They Shall Know No Fear
p383
VAutomatically regroups, can act normally on the turn it regroups, not killed by sweeping advances and is immune to fear.(Source: BRB, p.33)
p384
sVPsyker - Sorcerer
p385
VSorcerers generate their powers from the Biomancy, Pyromancy and Telepathy disciplines.(Source: ??)
p386
sVVeterans of the Long War
p387
VModels with the Veterans of the Long War special rule have the Hatred (Space Marines) special rule (see designer's note, pg 28) and +1 Leadership.(Source: ??)
p388
sVIcon of Old Caliban
p389
VFriendly Dark Angels within 12" add 1 to their combat resolution(Source: ??)
p390
sVIcon of Wrath
p391
VUnits with the Mark of Khorne only. All models with the Mark of Khorne in a unit equipped with an icon of wrath have the Furious Charge special rule. When determining its charge range, a unit with this icon may re-roll the result.(Source: ??)
p392
sVWaagh! Plane
p393
VWhen a Waagh! is called, model may shoot it's assault weapons double the number of times.(Source: ??)
p394
sVGrim Resolve
p395
VA model with this rule has Stubborn. In addition they may never choose to fail a morale check.(Source: Codex: Dark Angels 6th, p.28)
p396
sVNew Rule
p397
VNoise Marines are troops instead of elites.(Source: ??)
p398
sVWarlord Trait: Rapid Manoeuvre
p399
VYour Warlord, and any unit he joins, can either roll 2 dice when they run, using the highest roll, or can add D6" to any Turbo-boost they make (or Flat Out move, in the case of Master Sammael on his Land Speeder).(Source: Codex: Dark Angels 6th, p.58)
p400
sVDaemon of Nurgle
p401
VHatred (Daemons of Tzeentch); Shrouded; Slow and Purposeful.(Source: ??)
p402
sVRepair
p403
VIf a Rhino is Immobilised, then during the shooting phase you may roll a D6 instead of shooting, on a 6 the Rhino is no longer immobilised(Source: ??)
p404
sVHammer of Wrath
p405
VOn the turn this unit charges into combat they get an Initiative 10 hit at their unmodified Strength for each model with this rule.(Source: ??)
p406
sVBladestorm
p407
VWhen a weapon with this rule rolls a 6 to wound the target is automatically wounded at AP2(Source: ??)
p408
sVDaemon Weapon
p409
VAt the start of each Fight sub-phase during which the bearer of a Daemon Weapon is locked in combat, roll a D6. On a roll of a 1, the model immediately suffers a Wound with no armour saves allowed and his Weapon Skill is 1 until the end of the phase. On a roll of 2+, the bearer gains that many additional Attacks until the end of the phase. If the bearer has multiple Melee weapons, only roll a D6 if he chooses to attack with a Daemon Weapon.(Source: ??)
p410
sVConcussive
p411
VAny models that's taken an unsaved wound from a Concussive weapon is reduced to Initiative 1 until the end of the next Assault phase.(Source: ??)
p412
sVIt's a Grot's Life
p413
VCodex: Orks (pg 50)(Source: ??)
p414
sVPsyker (Mastery Level 3)
p415
VMay choose 2 Psychic Powers from Divination, Pyromancy, Telepathy and Telekinesis(Source: BRB, p.0)
p416
sVThe Hamadrya
p417
VThis creature manifests curious powers.\u000a\u000aThe Hamadrya is a combat familiar (pg 67). In addition, the beast makes Huron a Psyker (Mastery Level 1), granting him a randomly generated power as follows. At the beginning of each of your turns, roll a D3 on the table below. Then, randomly generate one psychic power from that discipline as if you were rolling for a Mastery Level 1 Psyker, with the exception that you cannot swap to the Primaris Power. The generated power may be used during that turn only.\u000a\u000a1 - Biomancy\u000a2 - Pyromancy\u000a3 - Divination(Source: ??)
p418
sVEternal Warrior
p419
VImmune to Instant Death(Source: BRB, p.35)
p420
sVSkyleap
p421
VThis unit may enter ongoing reserve at the start of any movment phase. They can't skyleap if they are locked in combat, pinned, falling back or carrying a relic.(Source: ??)
p422
sVMek's Tools
p423
VCodex: Orks (pg 34)(Source: ??)
p424
sVThe Path Beyond
p425
VAfter both sides have deployed but before scout redploymrnt has been performed, you can redploy upto D3+1 units, they must be deployed in your deployment zone, this can't be used to mover units into or out of reserve.(Source: ??)
p426
sVNexus of Khorne
p427
VIn a primary detachment that includes Kharn, Khorne Berzerkers are troops choices instead of elites.(Source: ??)
p428
sVVengeful Strike
p429
VWhen a model with this rule arrives from Deep Strike, it treats all ranged weapons as having Twin Linked until end of turn.(Source: Codex: Dark Angels 6th, p.44)
p430
sVMutilator Weapons
p431
VIf a Mutilator unit is locked in combat at the start of a Fight sub-phase, they must choose one of the weapons options from the following list:\u000a\u000a \u2022 A pair of chainfists\u000a \u2022 A pair of power mauls\u000a \u2022 A pair of lightning claws\u000a \u2022 A pair of power swords\u000a \u2022 A pair of power axes\u000a\u000aEvery Mutilator in a unit must choose the same weapons option. A Mutilator unit cannot choose the same weapons option in two consecutive Fight sub-phases.(Source: ??)
p432
sVGorechild
p433
VKharn's melee attacks always hit on a 2+ (even if they would othenvise hit automatically).(Source: ??)
p434
sVMurder
p435
VImmediately before the start of the first turn you must nominate one enemy character to be the target of the bearer of the Murder Sword (this can even be one in reserve; remember to tell your opponent which character you have nominated). Whilst the bearer is in base contact with the nominated character, the Murder Sword's Strength becomes x2, its AP becomes 1, and it has the Instant Death special rule.(Source: ??)
p436
sVExarch Power: Disarming Strike
p437
VIn any round of a Challenge, this model may attempt to disarm the opponent, both players roll a D6 (if the modle with this power has a higher WS add 1 to his roll).\u000aIf the model with this powers roll is equal to or higher than the opponent treat one of the opponents weapons as just a close combat weapon instead for this phase.(Source: ??)
p438
sVSwoop Attack
p439
VZagstruk and da Vulcha Boyz must enter the battle via Deep Strike. They may not shoot that turn, but to represent their swooping dive into the enemy ranks they may assault that turn (provided they are close enough). If the Vulcha Boyz assaults the turn it Deep Strikes into play, remove D3 Stormboyz at the beginning of combat as crash landing casualties.(Source: ??)
p440
sVSkilled Rider
p441
VAutomatically passes Dangerous Terrain and recieves +1 to Jink saves(Source: BRB, p.41)
p442
sVMeteoric Descent
p443
VHeldrakes have the Vector Strike special rule. However, as they are a vehicle, they can perform a Vector Strike whilst Zooming instead of whilst Swooping. Furthermore, hits caused by a Heldrake's Vector Strike are resolved at Strength 7.(Source: ??)
p444
sVSharpshoot
p445
VAll shots fired by this model are Precision Shots(Source: ??)
p446
sVMastery Level 2
p447
VGenerate 2 Warp Charges per turn, choose 2 powers from: Divination, Pyromancy, Telepathy and/or Telekinesis(Source: ??)
p448
sV'Ard Case
p449
VCodex: Orks (pg 93)(Source: ??)
p450
sVShroud of Angels
p451
VThe Darkshroud has Shrouded Special Rule and all friendlies within 6" have stealth(Source: ??)
p452
sVGlory Hogs
p453
VThey must always attempt to shoot at and/or assault an enemy vehicle if there is one in line of sight, regardless of range. If there is no visible vehicle target, the Tankbustas may select a target at normal.(Source: ??)
p454
sVRamshackle
p455
VIf the vehicle suffers any destroyed result on the vehicle damage table, roll on the Ramshackle table below and apply the result instead of the usual effects. If the Trukk suffers more than one destroyed result, roll one dice per result on the Ramshackle table, but only apply the lowest result.\u000aD6/Effect\u000a1-2/All passengers and models within D6" takes a Strength 3 hit. Surviving passengers must disembark and take a Pinning test.\u000a3-4/Move the Trukk 3D6" as far as possible in a random direction (the Ork player chooses if he rolls a 'Hit' on the Scatter dice). Then apply the result above. If the Trukk would careen into enemy models or terrain, stop it 1" away.\u000a5-6/The Ork passengers take no damage but must immediately disembark. The Trukk is then wrecked.(Source: ??)
p456
sVDaemon of Khorne
p457
VFurious Charge; Hatred (Daemons of Slaanesh)(Source: ??)
p458
sVRocket Barrage
p459
VIn a turn in which the vehicle has not moved, the mutli-launcher\u2019s rate of fire is increased to Heavy 1+D3.(Source: FW Relic_Scorpius PDF, p.0)
p460
sVMark of Slaanesh
p461
VModels with the mark of Slaanesh have +I Initiative.(Source: ??)
p462
sVPsyker (Mastery Level 4)
p463
VAhriman generates his powers from the Biomancy, Pyromancy, Telepathy and Tzeentch disciplines.(Source: ??)
p464
sVInfiltrate
p465
VSee page 38 of BRB(Source: BRB, p.38)
p466
sVInner Circle
p467
VFearless and Preferred Enemy (Chaos Space Marines)(Source: Codex: Dark Angels 6th, p.28)
p468
sVExarch Power: Marksman's Eye
p469
VThis model make precision shots on a 5+ rather than on a 6(Source: ??)
p470
sVDaemon
p471
VModels with the daemon special rule have a 5+ invulnerable save, and also have the Fear special rule.(Source: ??)
p472
sVMechatendrils
p473
VMechatendrils give the wearer +2 Attacks. Mechatendrils also include a meltagun and a flamer. In the Shooting phase, the Warpsmith can fire either both mecharendril weapons or one mechatendril weapon and one other weapon.(Source: ??)
p474
sVBlight Grenades
p475
VModels with the Mark of Nurgle only. Blight grenades count as both assault and defensive grenades.(Source: ??)
p476
sVOutflank
p477
VWhen this unit arrives from reserves roll al dice, on a 1-2 it comes in on your left, on a 3-4 it comes in on your right and on a 5-6 you choose right or left.(Source: BRB, p.40)
p478
sVEnhanced Warriors
p479
VOne Chaos Space Marine unit (see the army list, pg 95) in the same army as Fabius Bile can be nominated as Enhanced Warriors. That unit has the Fearless special rule and +I Strength for the entire game.(Source: ??)
p480
sVDemagogue
p481
VFriendly units from this codex within 6" of a Dark Apostle must use his Leadership instead of their own.(Source: ??)
p482
sVGrot Riggers
p483
VCodex: Orks (pg 92)(Source: ??)
p484
sVBulky
p485
VBulky Models count as two models for the purposes of transport capacity.(Source: ??)
p486
sVShred
p487
VRe-roll failed To-Wounds in close combat.(Source: ??)
p488
sVFleshbane
p489
VAlways wounds on a 2+ against non-vehicles(Source: ??)
p490
sVPower of the Machine Spirit
p491
VSo long as the vehicle dosen't move flat out or pop smoke, it may fire an additional weapon than normal and may fire at a different target.(Source: ??)
p492
sVSun's Brilliance
p493
VWhen Baharroth enters play from Deep Strike, all enemy units within 6" must test as if hit by a weapon with blind(Source: ??)
p494
sVDaemonic Possession
p495
VThe vehicle's Ballistic Skill is reduced to 3. It ignores the effect of Crew Shaken and Crew Stunned results on a roll of a 2+. Embarked units are still affected by this result.\u000a\u000aRoll a D6 each time a unit embarks on a vehicle with the daemonic possession upgrade (including rolling at the start of your first turn if a unit begins the game embarked upon such a vehicle). On a roll of a 1, the Daemon devours a randomly chosen model in the unit - remove that model as a casualty with no saves of any kind allowed. The vehicle then recovers oue Hull Point lost earlier in the battle.(Source: ??)
p496
sVBlastas
p497
VCodex: Orks (pg 56)(Source: ??)
p498
sVStubborn
p499
VIgnore all negative Ld modifiers, if the unit has Fearless as well ignore this rule.(Source: BRB, p.43)
p500
sVSoulrazor
p501
VWhen a modle suffers one or more unsaved wounds from this weapon, it must pass a seperate LD test for each or be removed from play(Source: ??)
p502
sVChaos Lord - Mark of Khorne
p503
VKhorne Berzerkers are troops instead of elites(Source: ??)
p504
sVGrot Oiler
p505
VCodex: Orks (pg 34)(Source: ??)
p506
sVBattle Focus
p507
VCan either Run then shoot or shoot then Run in the same shooting phase, models that cannot run gain no benefit from this rule(Source: ??)
p508
sVCombat Squads
p509
VA 10-man unit with this rule can break down into two 5-man units.\u000aYou must decide which units are splitting into combat squads, and which models go into which combat squad BEFORE deployment, for all pourposes they are two seperate units.\u000aNote: two combat squads split from the same unit may share tansport space in the same transport vehicle.(Source: Codex: Dark Angels 6th, p.28)
p510
sVShrouded
p511
VCounts it's cover save as 2 better than normal (Combines with Stealth)(Source: ??)
p512
sVNest of Vipers
p513
VCodex: Orks (pg 61)(Source: ??)
p514
sVCombat Familiar
p515
VA model with a combat familiar makes two additional S4 AP- Melee Attacks. The combat familiar is always assumed to be on the same base as its master. If you wish to represent it separalely you can. However, the model itself plays no part in the game; if the model gets in the way, simply move it to one side.(Source: ??)
p516
sVRites of Battle
p517
VAll models in Codex: Dark Angels 6th use his Azrael's Ledership as long as he is on the table.(Source: Codex: Dark Angels 6th, p.53)
p518
sVViolent Temper
p519
VShould his unit ever fail a Morale check, Zagstruk will execute a member of the unit to restore order. The unit is instead counted as passing the test, but a Stormboy model must be removed as a casualty as a result. If Zagstruk is on his own, the Violent Temper rule does not apply.(Source: ??)
p520
sVMaster of the Rubricae
p521
VIn a primary detachment that includes a Sorcerer with the Mark of Tzeentch, Thousand Sons are troops choices instead of elites.(Source: ??)
p522
sVMove Through Cover
p523
VRoll an extra dice for determining distance traveled through cover and automatically pass danegerous terrain tests(Source: BRB, p.40)
p524
sVFleshmetal
p525
VFleshmetal confers a 2+ Armour Save.(Source: ??)
p526
sVExarch Power: Stalker
p527
VIn the first round of a challenge the model may attempt to backstab the opponent, if the attempt is made both players roll a D6 before any attacks are made, if this models I is higher than the opponent add 1 to the roll.\u000aIf this model's total is equal to or higher than the opponent's he re-rolls all failed to hit rolls this phase(Source: ??)
p528
s.